; Function Attrs: inlinehint mustprogress norecurse ssp uwtable
define internal fastcc void @"_ZZ4mainENK3$_3clEd"(ptr noundef nonnull readonly align 8 captures(none) dereferenceable(8) %0, double noundef %1) unnamed_addr #10 align 2 personality ptr @__gxx_personality_v0 {
  %3 = alloca %"class.std::shared_ptr.236", align 8
  %4 = alloca %"class.Eigen::Matrix.195", align 8
  call void @llvm.lifetime.start.p0(i64 16, ptr nonnull %3) #36
  call void @_ZN6open3d13visualization17GetGlobalColorMapEv(ptr dead_on_unwind nonnull writable sret(%"class.std::shared_ptr.236") align 8 %3)
  %5 = load ptr, ptr %0, align 8, !tbaa !157
  %6 = load ptr, ptr %5, align 8, !tbaa !85
  %7 = getelementptr inbounds nuw i8, ptr %6, i64 96
  %8 = load ptr, ptr %7, align 8, !tbaa !159
  %9 = getelementptr inbounds nuw i8, ptr %6, i64 104
  %10 = load ptr, ptr %9, align 8, !tbaa !159
  %.not9 = icmp eq ptr %8, %10
  br i1 %.not9, label %._crit_edge, label %.lr.ph

._crit_edge:                                      ; preds = %38, %2
  %11 = getelementptr inbounds nuw i8, ptr %3, i64 8
  %12 = load ptr, ptr %11, align 8, !tbaa !49
  %.not.i.i = icmp eq ptr %12, null
  br i1 %.not.i.i, label %_ZNSt12__shared_ptrIKN6open3d13visualization8ColorMapELN9__gnu_cxx12_Lock_policyE2EED2Ev.exit, label %13

13:                                               ; preds = %._crit_edge
  %14 = getelementptr inbounds nuw i8, ptr %12, i64 8
  %15 = load atomic i64, ptr %14 acquire, align 8
  %16 = icmp eq i64 %15, 4294967297
  %17 = trunc i64 %15 to i32
  br i1 %16, label %18, label %26

18:                                               ; preds = %13
  store i32 0, ptr %14, align 8, !tbaa !39
  %19 = getelementptr inbounds nuw i8, ptr %12, i64 12
  store i32 0, ptr %19, align 4, !tbaa !42
  %20 = load ptr, ptr %12, align 8, !tbaa !43
  %21 = getelementptr inbounds nuw i8, ptr %20, i64 16
  %22 = load ptr, ptr %21, align 8
  call void %22(ptr noundef nonnull align 8 dereferenceable(16) %12) #36
  %23 = load ptr, ptr %12, align 8, !tbaa !43
  %24 = getelementptr inbounds nuw i8, ptr %23, i64 24
  %25 = load ptr, ptr %24, align 8
  call void %25(ptr noundef nonnull align 8 dereferenceable(16) %12) #36
  br label %_ZNSt12__shared_ptrIKN6open3d13visualization8ColorMapELN9__gnu_cxx12_Lock_policyE2EED2Ev.exit

26:                                               ; preds = %13
  %27 = load i8, ptr @__libc_single_threaded, align 1, !tbaa !27
  %.not.i.i.i = icmp eq i8 %27, 0
  br i1 %.not.i.i.i, label %30, label %28

28:                                               ; preds = %26
  %29 = add nsw i32 %17, -1
  store i32 %29, ptr %14, align 4, !tbaa !64
  br label %_ZN9__gnu_cxx27__exchange_and_add_dispatchEPii.exit.i.i.i

30:                                               ; preds = %26
  %31 = atomicrmw volatile add ptr %14, i32 -1 acq_rel, align 4
  br label %_ZN9__gnu_cxx27__exchange_and_add_dispatchEPii.exit.i.i.i

_ZN9__gnu_cxx27__exchange_and_add_dispatchEPii.exit.i.i.i: ; preds = %30, %28
  %.0.i.i.i.i = phi i32 [ %17, %28 ], [ %31, %30 ]
  %32 = icmp eq i32 %.0.i.i.i.i, 1
  br i1 %32, label %33, label %_ZNSt12__shared_ptrIKN6open3d13visualization8ColorMapELN9__gnu_cxx12_Lock_policyE2EED2Ev.exit, !prof !70

33:                                               ; preds = %_ZN9__gnu_cxx27__exchange_and_add_dispatchEPii.exit.i.i.i
  call void @_ZNSt16_Sp_counted_baseILN9__gnu_cxx12_Lock_policyE2EE24_M_release_last_use_coldEv(ptr noundef nonnull align 8 dereferenceable(16) %12) #36
  br label %_ZNSt12__shared_ptrIKN6open3d13visualization8ColorMapELN9__gnu_cxx12_Lock_policyE2EED2Ev.exit

_ZNSt12__shared_ptrIKN6open3d13visualization8ColorMapELN9__gnu_cxx12_Lock_policyE2EED2Ev.exit: ; preds = %._crit_edge, %18, %_ZN9__gnu_cxx27__exchange_and_add_dispatchEPii.exit.i.i.i, %33
  call void @llvm.lifetime.end.p0(i64 16, ptr nonnull %3) #36
  ret void

.lr.ph:                                           ; preds = %2, %38
  %.sroa.06.010 = phi ptr [ %39, %38 ], [ %8, %2 ]
  call void @llvm.lifetime.start.p0(i64 24, ptr nonnull %4) #36
  %34 = load ptr, ptr %3, align 8, !tbaa !160
  %35 = load ptr, ptr %34, align 8, !tbaa !43
  %36 = getelementptr inbounds nuw i8, ptr %35, i64 16
  %37 = load ptr, ptr %36, align 8
  invoke void %37(ptr dead_on_unwind nonnull writable sret(%"class.Eigen::Matrix.195") align 8 %4, ptr noundef nonnull align 8 dereferenceable(8) %34, double noundef %1)
          to label %38 unwind label %40

38:                                               ; preds = %.lr.ph
  call void @llvm.memcpy.p0.p0.i64(ptr noundef nonnull align 8 dereferenceable(24) %.sroa.06.010, ptr noundef nonnull align 8 dereferenceable(24) %4, i64 24, i1 false), !tbaa.struct !151
  call void @llvm.lifetime.end.p0(i64 24, ptr nonnull %4) #36
  %39 = getelementptr inbounds nuw i8, ptr %.sroa.06.010, i64 24
  %.not = icmp eq ptr %39, %10
  br i1 %.not, label %._crit_edge, label %.lr.ph

40:                                               ; preds = %.lr.ph
  %41 = landingpad { ptr, i32 }
          cleanup
  call void @llvm.lifetime.end.p0(i64 24, ptr nonnull %4) #36
  call void @_ZNSt12__shared_ptrIKN6open3d13visualization8ColorMapELN9__gnu_cxx12_Lock_policyE2EED2Ev(ptr noundef nonnull align 8 dereferenceable(16) %3) #36
  call void @llvm.lifetime.end.p0(i64 16, ptr nonnull %3) #36
  resume { ptr, i32 } %41
}